; Function Attrs: mustprogress uwtable
define dso_local noundef nonnull align 8 dereferenceable(8) ptr @_ZlsRSo7cmValue(ptr noundef nonnull returned align 8 dereferenceable(8) %0, ptr readonly %1) local_unnamed_addr #5 {
  %.not.i = icmp eq ptr %1, null
  %spec.select.i = select i1 %.not.i, ptr @_ZN7cmValue5EmptyB5cxx11E, ptr %1
  %3 = load ptr, ptr %spec.select.i, align 8, !tbaa !16
  %4 = getelementptr inbounds nuw i8, ptr %spec.select.i, i64 8
  %5 = load i64, ptr %4, align 8, !tbaa !11
  %6 = tail call noundef nonnull align 8 dereferenceable(8) ptr @_ZSt16__ostream_insertIcSt11char_traitsIcEERSt13basic_ostreamIT_T0_ES6_PKS3_l(ptr noundef nonnull align 8 dereferenceable(8) %0, ptr noundef %3, i64 noundef %5)
  ret ptr %0
}